target datalayout = "e-m:e-p270:32:32-p271:32:32-p272:64:64-i64:64-i128:128-f80:128-n8:16:32:64-S128"
target triple = "x86_64-pc-linux-gnu"

%struct.Aig_Obj_t_ = type { %union.anon, ptr, ptr, i64, i32, i32, %union.anon.0 }
%union.anon = type { ptr }
%union.anon.0 = type { ptr }
%struct.Aig_Man_t_ = type { ptr, ptr, ptr, ptr, ptr, ptr, ptr, %struct.Aig_Obj_t_, i32, i32, i32, i32, i32, i32, [7 x i32], i32, ptr, i32, ptr, i32, ptr, i32, i32, i32, ptr, i32, i32, i32, i32, i32, ptr, ptr, i32, ptr, ptr, i32, ptr, ptr, i32, i32, i32, ptr, ptr, ptr, ptr, ptr, ptr, ptr, ptr, ptr, ptr, ptr, ptr, ptr, ptr, i32, ptr, ptr, ptr, ptr, i32, i64, i64, i64, ptr, ptr }

; Function Attrs: nounwind uwtable
define internal ptr @Aig_ObjEquiv(ptr noundef %0, ptr noundef %1) #0 {
  %3 = alloca ptr, align 8
  %4 = alloca ptr, align 8
  store ptr %0, ptr %3, align 8
  store ptr %1, ptr %4, align 8
  %5 = load ptr, ptr %3, align 8
  %6 = getelementptr inbounds %struct.Aig_Man_t_, ptr %5, i32 0, i32 30
  %7 = load ptr, ptr %6, align 8
  %8 = icmp ne ptr %7, null
  br i1 %8, label %9, label %19

9:                                                ; preds = %2
  %10 = load ptr, ptr %3, align 8
  %11 = getelementptr inbounds %struct.Aig_Man_t_, ptr %10, i32 0, i32 30
  %12 = load ptr, ptr %11, align 8
  %13 = load ptr, ptr %4, align 8
  %14 = getelementptr inbounds %struct.Aig_Obj_t_, ptr %13, i32 0, i32 5
  %15 = load i32, ptr %14, align 4
  %16 = sext i32 %15 to i64
  %17 = getelementptr inbounds ptr, ptr %12, i64 %16
  %18 = load ptr, ptr %17, align 8
  br label %20

19:                                               ; preds = %2
  br label %20

20:                                               ; preds = %19, %9
  %21 = phi ptr [ %18, %9 ], [ null, %19 ]
  ret ptr %21
}

; Function Attrs: nounwind uwtable
define i32 @Dch_ObjCheckTfi(ptr noundef %0, ptr noundef %1, ptr noundef %2) #0 {
  %4 = alloca ptr, align 8
  %5 = alloca ptr, align 8
  %6 = alloca ptr, align 8
  %7 = alloca ptr, align 8
  %8 = alloca i32, align 4
  store ptr %0, ptr %4, align 8
  store ptr %1, ptr %5, align 8
  store ptr %2, ptr %6, align 8
  %9 = load ptr, ptr %6, align 8
  store ptr %9, ptr %7, align 8
  br label %10

10:                                               ; preds = %19, %3
  %11 = load ptr, ptr %7, align 8
  %12 = icmp ne ptr %11, null
  br i1 %12, label %13, label %23

13:                                               ; preds = %10
  %14 = load ptr, ptr %7, align 8
  %15 = getelementptr inbounds %struct.Aig_Obj_t_, ptr %14, i32 0, i32 3
  %16 = load i64, ptr %15, align 8
  %17 = and i64 %16, -17
  %18 = or i64 %17, 16
  store i64 %18, ptr %15, align 8
  br label %19

19:                                               ; preds = %13
  %20 = load ptr, ptr %4, align 8
  %21 = load ptr, ptr %7, align 8
  %22 = call ptr @Aig_ObjEquiv(ptr noundef %20, ptr noundef %21)
  store ptr %22, ptr %7, align 8
  br label %10, !llvm.loop !12

23:                                               ; preds = %10
  %24 = load ptr, ptr %4, align 8
  call void @Aig_ManIncrementTravId(ptr noundef %24)
  %25 = load ptr, ptr %4, align 8
  %26 = load ptr, ptr %5, align 8
  %27 = call i32 @Dch_ObjCheckTfi_rec(ptr noundef %25, ptr noundef %26)
  store i32 %27, ptr %8, align 4
  %28 = load ptr, ptr %6, align 8
  store ptr %28, ptr %7, align 8
  br label %29

29:                                               ; preds = %38, %23
  %30 = load ptr, ptr %7, align 8
  %31 = icmp ne ptr %30, null
  br i1 %31, label %32, label %42

32:                                               ; preds = %29
  %33 = load ptr, ptr %7, align 8
  %34 = getelementptr inbounds %struct.Aig_Obj_t_, ptr %33, i32 0, i32 3
  %35 = load i64, ptr %34, align 8
  %36 = and i64 %35, -17
  %37 = or i64 %36, 0
  store i64 %37, ptr %34, align 8
  br label %38

38:                                               ; preds = %32
  %39 = load ptr, ptr %4, align 8
  %40 = load ptr, ptr %7, align 8
  %41 = call ptr @Aig_ObjEquiv(ptr noundef %39, ptr noundef %40)
  store ptr %41, ptr %7, align 8
  br label %29, !llvm.loop !13

42:                                               ; preds = %29
  %43 = load i32, ptr %8, align 4
  ret i32 %43
}