; Function Attrs: nounwind uwtable
define range(i32 0, 2) i32 @Dch_ObjCheckTfi(ptr noundef %0, ptr noundef %1, ptr noundef %2) local_unnamed_addr #1 {
  %.not17 = icmp eq ptr %2, null
  br i1 %.not17, label %._crit_edge, label %.lr.ph

.lr.ph:                                           ; preds = %3
  %4 = getelementptr i8, ptr %0, i64 248
  br label %5

5:                                                ; preds = %.lr.ph, %Aig_ObjEquiv.exit
  %.018 = phi ptr [ %2, %.lr.ph ], [ %13, %Aig_ObjEquiv.exit ]
  %6 = getelementptr inbounds nuw i8, ptr %.018, i64 24
  %7 = load i64, ptr %6, align 8
  %8 = or i64 %7, 16
  store i64 %8, ptr %6, align 8
  %.val14 = load ptr, ptr %4, align 8
  %.not.i = icmp eq ptr %.val14, null
  br i1 %.not.i, label %._crit_edge, label %Aig_ObjEquiv.exit

Aig_ObjEquiv.exit:                                ; preds = %5
  %9 = getelementptr inbounds nuw i8, ptr %.018, i64 36
  %10 = load i32, ptr %9, align 4
  %11 = sext i32 %10 to i64
  %12 = getelementptr inbounds ptr, ptr %.val14, i64 %11
  %13 = load ptr, ptr %12, align 8
  %.not = icmp eq ptr %13, null
  br i1 %.not, label %._crit_edge, label %5, !llvm.loop !11

._crit_edge:                                      ; preds = %5, %Aig_ObjEquiv.exit, %3
  tail call void @Aig_ManIncrementTravId(ptr noundef %0) #11
  %14 = tail call i32 @Dch_ObjCheckTfi_rec(ptr noundef %0, ptr noundef %1)
  br i1 %.not17, label %._crit_edge23, label %.lr.ph22

.lr.ph22:                                         ; preds = %._crit_edge
  %15 = getelementptr i8, ptr %0, i64 248
  br label %16

16:                                               ; preds = %.lr.ph22, %Aig_ObjEquiv.exit16
  %.120 = phi ptr [ %2, %.lr.ph22 ], [ %24, %Aig_ObjEquiv.exit16 ]
  %17 = getelementptr inbounds nuw i8, ptr %.120, i64 24
  %18 = load i64, ptr %17, align 8
  %19 = and i64 %18, -17
  store i64 %19, ptr %17, align 8
  %.val = load ptr, ptr %15, align 8
  %.not.i15 = icmp eq ptr %.val, null
  br i1 %.not.i15, label %._crit_edge23, label %Aig_ObjEquiv.exit16

Aig_ObjEquiv.exit16:                              ; preds = %16
  %20 = getelementptr inbounds nuw i8, ptr %.120, i64 36
  %21 = load i32, ptr %20, align 4
  %22 = sext i32 %21 to i64
  %23 = getelementptr inbounds ptr, ptr %.val, i64 %22
  %24 = load ptr, ptr %23, align 8
  %.not13 = icmp eq ptr %24, null
  br i1 %.not13, label %._crit_edge23, label %16, !llvm.loop !12

._crit_edge23:                                    ; preds = %16, %Aig_ObjEquiv.exit16, %._crit_edge
  ret i32 %14
}